target datalayout = "e-m:e-p270:32:32-p271:32:32-p272:64:64-i64:64-i128:128-f80:128-n8:16:32:64-S128"
target triple = "x86_64-unknown-linux-gnu"

%"class.icu_75::UVector" = type { %"class.icu_75::UObject", i32, i32, ptr, ptr, ptr }
%"class.icu_75::UObject" = type { ptr }
%union.UElement = type { ptr }

; Function Attrs: mustprogress nounwind uwtable
define internal noundef signext i8 @_ZL9U_FAILURE10UErrorCode(i32 noundef %code) #0 {
entry:
  %code.addr = alloca i32, align 4
  store i32 %code, ptr %code.addr, align 4
  %0 = load i32, ptr %code.addr, align 4
  %cmp = icmp sgt i32 %0, 0
  %conv = zext i1 %cmp to i8
  ret i8 %conv
}

; Function Attrs: mustprogress uwtable
define noundef signext i8 @_ZN6icu_757UVector14ensureCapacityEiR10UErrorCode(ptr noundef nonnull align 8 dereferenceable(40) %this, i32 noundef %minimumCapacity, ptr noundef nonnull align 4 dereferenceable(4) %status) #1 align 2 {
entry:
  %retval = alloca i8, align 1
  %this.addr = alloca ptr, align 8
  %minimumCapacity.addr = alloca i32, align 4
  %status.addr = alloca ptr, align 8
  %newCap = alloca i32, align 4
  %newElems = alloca ptr, align 8
  store ptr %this, ptr %this.addr, align 8
  store i32 %minimumCapacity, ptr %minimumCapacity.addr, align 4
  store ptr %status, ptr %status.addr, align 8
  %this1 = load ptr, ptr %this.addr, align 8
  %0 = load ptr, ptr %status.addr, align 8
  %1 = load i32, ptr %0, align 4
  %call = call noundef signext i8 @_ZL9U_FAILURE10UErrorCode(i32 noundef %1)
  %tobool = icmp ne i8 %call, 0
  br i1 %tobool, label %if.then, label %if.end

if.then:                                          ; preds = %entry
  store i8 0, ptr %retval, align 1
  br label %return

if.end:                                           ; preds = %entry
  %2 = load i32, ptr %minimumCapacity.addr, align 4
  %cmp = icmp slt i32 %2, 0
  br i1 %cmp, label %if.then2, label %if.end3

if.then2:                                         ; preds = %if.end
  %3 = load ptr, ptr %status.addr, align 8
  store i32 1, ptr %3, align 4
  store i8 0, ptr %retval, align 1
  br label %return

if.end3:                                          ; preds = %if.end
  %capacity = getelementptr inbounds %"class.icu_75::UVector", ptr %this1, i32 0, i32 2
  %4 = load i32, ptr %capacity, align 4
  %5 = load i32, ptr %minimumCapacity.addr, align 4
  %cmp4 = icmp slt i32 %4, %5
  br i1 %cmp4, label %if.then5, label %if.end24

if.then5:                                         ; preds = %if.end3
  %capacity6 = getelementptr inbounds %"class.icu_75::UVector", ptr %this1, i32 0, i32 2
  %6 = load i32, ptr %capacity6, align 4
  %cmp7 = icmp sgt i32 %6, 1073741823
  br i1 %cmp7, label %if.then8, label %if.end9

if.then8:                                         ; preds = %if.then5
  %7 = load ptr, ptr %status.addr, align 8
  store i32 1, ptr %7, align 4
  store i8 0, ptr %retval, align 1
  br label %return

if.end9:                                          ; preds = %if.then5
  %capacity10 = getelementptr inbounds %"class.icu_75::UVector", ptr %this1, i32 0, i32 2
  %8 = load i32, ptr %capacity10, align 4
  %mul = mul nsw i32 %8, 2
  store i32 %mul, ptr %newCap, align 4
  %9 = load i32, ptr %newCap, align 4
  %10 = load i32, ptr %minimumCapacity.addr, align 4
  %cmp11 = icmp slt i32 %9, %10
  br i1 %cmp11, label %if.then12, label %if.end13

if.then12:                                        ; preds = %if.end9
  %11 = load i32, ptr %minimumCapacity.addr, align 4
  store i32 %11, ptr %newCap, align 4
  br label %if.end13

if.end13:                                         ; preds = %if.then12, %if.end9
  %12 = load i32, ptr %newCap, align 4
  %cmp14 = icmp sgt i32 %12, 268435455
  br i1 %cmp14, label %if.then15, label %if.end16

if.then15:                                        ; preds = %if.end13
  %13 = load ptr, ptr %status.addr, align 8
  store i32 1, ptr %13, align 4
  store i8 0, ptr %retval, align 1
  br label %return

if.end16:                                         ; preds = %if.end13
  %elements = getelementptr inbounds %"class.icu_75::UVector", ptr %this1, i32 0, i32 3
  %14 = load ptr, ptr %elements, align 8
  %15 = load i32, ptr %newCap, align 4
  %conv = sext i32 %15 to i64
  %mul17 = mul i64 8, %conv
  %call18 = call ptr @uprv_realloc_75(ptr noundef %14, i64 noundef %mul17) #12
  store ptr %call18, ptr %newElems, align 8
  %16 = load ptr, ptr %newElems, align 8
  %cmp19 = icmp eq ptr %16, null
  br i1 %cmp19, label %if.then20, label %if.end21

if.then20:                                        ; preds = %if.end16
  %17 = load ptr, ptr %status.addr, align 8
  store i32 7, ptr %17, align 4
  store i8 0, ptr %retval, align 1
  br label %return

if.end21:                                         ; preds = %if.end16
  %18 = load ptr, ptr %newElems, align 8
  %elements22 = getelementptr inbounds %"class.icu_75::UVector", ptr %this1, i32 0, i32 3
  store ptr %18, ptr %elements22, align 8
  %19 = load i32, ptr %newCap, align 4
  %capacity23 = getelementptr inbounds %"class.icu_75::UVector", ptr %this1, i32 0, i32 2
  store i32 %19, ptr %capacity23, align 4
  br label %if.end24

if.end24:                                         ; preds = %if.end21, %if.end3
  store i8 1, ptr %retval, align 1
  br label %return

return:                                           ; preds = %if.end24, %if.then20, %if.then15, %if.then8, %if.then2, %if.then
  %20 = load i8, ptr %retval, align 1
  ret i8 %20
}

; Function Attrs: mustprogress uwtable
define void @_ZN6icu_757UVector15insertElementAtEPviR10UErrorCode(ptr noundef nonnull align 8 dereferenceable(40) %this, ptr noundef %obj, i32 noundef %index, ptr noundef nonnull align 4 dereferenceable(4) %status) #1 align 2 {
entry:
  %this.addr = alloca ptr, align 8
  %obj.addr = alloca ptr, align 8
  %index.addr = alloca i32, align 4
  %status.addr = alloca ptr, align 8
  %i = alloca i32, align 4
  store ptr %this, ptr %this.addr, align 8
  store ptr %obj, ptr %obj.addr, align 8
  store i32 %index, ptr %index.addr, align 4
  store ptr %status, ptr %status.addr, align 8
  %this1 = load ptr, ptr %this.addr, align 8
  %count = getelementptr inbounds %"class.icu_75::UVector", ptr %this1, i32 0, i32 1
  %0 = load i32, ptr %count, align 8
  %add = add nsw i32 %0, 1
  %1 = load ptr, ptr %status.addr, align 8
  %call = call noundef signext i8 @_ZN6icu_757UVector14ensureCapacityEiR10UErrorCode(ptr noundef nonnull align 8 dereferenceable(40) %this1, i32 noundef %add, ptr noundef nonnull align 4 dereferenceable(4) %1)
  %tobool = icmp ne i8 %call, 0
  br i1 %tobool, label %if.then, label %if.end14

if.then:                                          ; preds = %entry
  %2 = load i32, ptr %index.addr, align 4
  %cmp = icmp sle i32 0, %2
  br i1 %cmp, label %land.lhs.true, label %if.else

land.lhs.true:                                    ; preds = %if.then
  %3 = load i32, ptr %index.addr, align 4
  %count2 = getelementptr inbounds %"class.icu_75::UVector", ptr %this1, i32 0, i32 1
  %4 = load i32, ptr %count2, align 8
  %cmp3 = icmp sle i32 %3, %4
  br i1 %cmp3, label %if.then4, label %if.else

if.then4:                                         ; preds = %land.lhs.true
  %count5 = getelementptr inbounds %"class.icu_75::UVector", ptr %this1, i32 0, i32 1
  %5 = load i32, ptr %count5, align 8
  store i32 %5, ptr %i, align 4
  br label %for.cond

for.cond:                                         ; preds = %for.inc, %if.then4
  %6 = load i32, ptr %i, align 4
  %7 = load i32, ptr %index.addr, align 4
  %cmp6 = icmp sgt i32 %6, %7
  br i1 %cmp6, label %for.body, label %for.end

for.body:                                         ; preds = %for.cond
  %elements = getelementptr inbounds %"class.icu_75::UVector", ptr %this1, i32 0, i32 3
  %8 = load ptr, ptr %elements, align 8
  %9 = load i32, ptr %i, align 4
  %sub = sub nsw i32 %9, 1
  %idxprom = sext i32 %sub to i64
  %arrayidx = getelementptr inbounds %union.UElement, ptr %8, i64 %idxprom
  %elements7 = getelementptr inbounds %"class.icu_75::UVector", ptr %this1, i32 0, i32 3
  %10 = load ptr, ptr %elements7, align 8
  %11 = load i32, ptr %i, align 4
  %idxprom8 = sext i32 %11 to i64
  %arrayidx9 = getelementptr inbounds %union.UElement, ptr %10, i64 %idxprom8
  call void @llvm.memcpy.p0.p0.i64(ptr align 8 %arrayidx9, ptr align 8 %arrayidx, i64 8, i1 false)
  br label %for.inc

for.inc:                                          ; preds = %for.body
  %12 = load i32, ptr %i, align 4
  %dec = add nsw i32 %12, -1
  store i32 %dec, ptr %i, align 4
  br label %for.cond, !llvm.loop !10

for.end:                                          ; preds = %for.cond
  %13 = load ptr, ptr %obj.addr, align 8
  %elements10 = getelementptr inbounds %"class.icu_75::UVector", ptr %this1, i32 0, i32 3
  %14 = load ptr, ptr %elements10, align 8
  %15 = load i32, ptr %index.addr, align 4
  %idxprom11 = sext i32 %15 to i64
  %arrayidx12 = getelementptr inbounds %union.UElement, ptr %14, i64 %idxprom11
  store ptr %13, ptr %arrayidx12, align 8
  %count13 = getelementptr inbounds %"class.icu_75::UVector", ptr %this1, i32 0, i32 1
  %16 = load i32, ptr %count13, align 8
  %inc = add nsw i32 %16, 1
  store i32 %inc, ptr %count13, align 8
  br label %if.end

if.else:                                          ; preds = %land.lhs.true, %if.then
  %17 = load ptr, ptr %status.addr, align 8
  store i32 1, ptr %17, align 4
  br label %if.end

if.end:                                           ; preds = %if.else, %for.end
  br label %if.end14

if.end14:                                         ; preds = %if.end, %entry
  %18 = load ptr, ptr %status.addr, align 8
  %19 = load i32, ptr %18, align 4
  %call15 = call noundef signext i8 @_ZL9U_FAILURE10UErrorCode(i32 noundef %19)
  %tobool16 = icmp ne i8 %call15, 0
  br i1 %tobool16, label %land.lhs.true17, label %if.end21

land.lhs.true17:                                  ; preds = %if.end14
  %deleter = getelementptr inbounds %"class.icu_75::UVector", ptr %this1, i32 0, i32 4
  %20 = load ptr, ptr %deleter, align 8
  %cmp18 = icmp ne ptr %20, null
  br i1 %cmp18, label %if.then19, label %if.end21

if.then19:                                        ; preds = %land.lhs.true17
  %deleter20 = getelementptr inbounds %"class.icu_75::UVector", ptr %this1, i32 0, i32 4
  %21 = load ptr, ptr %deleter20, align 8
  %22 = load ptr, ptr %obj.addr, align 8
  call void %21(ptr noundef %22)
  br label %if.end21

if.end21:                                         ; preds = %if.then19, %land.lhs.true17, %if.end14
  ret void
}